(dp0
S''
p1
I01
sS'secondly'
p2
I01
sS'all'
p3
I01
sS'consider'
p4
I01
sS'whoever'
p5
I01
sS'four'
p6
I01
sS'edu'
p7
I01
sS'go'
p8
I01
sS'causes'
p9
I01
sS'seemed'
p10
I01
sS'rd'
p11
I01
sS'certainly'
p12
I01
sS'vs'
p13
I01
sS'to'
p14
I01
sS'asking'
p15
I01
sS'th'
p16
I01
sS'under'
p17
I01
sS'sorry'
p18
I01
sS'sent'
p19
I01
sS'far'
p20
I01
sS'every'
p21
I01
sS'yourselves'
p22
I01
sS'went'
p23
I01
sS'did'
p24
I01
sS'forth'
p25
I01
sS'try'
p26
I01
sS'p'
p27
I01
sS'says'
p28
I01
sS'yourself'
p29
I01
sS'likely'
p30
I01
sS'further'
p31
I01
sS'even'
p32
I01
sS'what'
p33
I01
sS'appear'
p34
I01
sS'brief'
p35
I01
sS'goes'
p36
I01
sS'sup'
p37
I01
sS'new'
p38
I01
sS'ever'
p39
I01
sS'whose'
p40
I01
sS'respectively'
p41
I01
sS'never'
p42
I01
sS'here'
p43
I01
sS'let'
p44
I01
sS'others'
p45
I01
sS'alone'
p46
I01
sS'along'
p47
I01
sS'quite'
p48
I01
sS'k'
p49
I01
sS'allows'
p50
I01
sS'howbeit'
p51
I01
sS'usually'
p52
I01
sS'whereupon'
p53
I01
sS'changes'
p54
I01
sS'thats'
p55
I01
sS'hither'
p56
I01
sS'via'
p57
I01
sS'regardless'
p58
I01
sS'merely'
p59
I01
sS'while'
p60
I01
sS'viz'
p61
I01
sS'everybody'
p62
I01
sS'use'
p63
I01
sS'from'
p64
I01
sS'would'
p65
I01
sS'contains'
p66
I01
sS'two'
p67
I01
sS'next'
p68
I01
sS'few'
p69
I01
sS'therefore'
p70
I01
sS'taken'
p71
I01
sS'themselves'
p72
I01
sS'thru'
p73
I01
sS'tell'
p74
I01
sS'more'
p75
I01
sS'knows'
p76
I01
sS'becomes'
p77
I01
sS'hereby'
p78
I01
sS'herein'
p79
I01
sS'everywhere'
p80
I01
sS'particular'
p81
I01
sS'known'
p82
I01
sS'must'
p83
I01
sS'me'
p84
I01
sS'none'
p85
I01
sS'f'
p86
I01
sS'this'
p87
I01
sS'getting'
p88
I01
sS'anywhere'
p89
I01
sS'nine'
p90
I01
sS'can'
p91
I01
sS'theirs'
p92
I01
sS'following'
p93
I01
sS'my'
p94
I01
sS'example'
p95
I01
sS'indicated'
p96
I01
sS'indicates'
p97
I01
sS'something'
p98
I01
sS'want'
p99
I01
sS'needs'
p100
I01
sS'rather'
p101
I01
sS'meanwhile'
p102
I01
sS'how'
p103
I01
sS'instead'
p104
I01
sS'okay'
p105
I01
sS'tried'
p106
I01
sS'may'
p107
I01
sS'different'
p108
I01
sS'hereupon'
p109
I01
sS'such'
p110
I01
sS'a'
p111
I01
sS'third'
p112
I01
sS'whenever'
p113
I01
sS'maybe'
p114
I01
sS'appreciate'
p115
I01
sS'q'
p116
I01
sS'ones'
p117
I01
sS'so'
p118
I01
sS'specifying'
p119
I01
sS'allow'
p120
I01
sS'keeps'
p121
I01
sS'six'
p122
I01
sS'help'
p123
I01
sS'indeed'
p124
I01
sS'over'
p125
I01
sS'mainly'
p126
I01
sS'soon'
p127
I01
sS'course'
p128
I01
sS'through'
p129
I01
sS'looks'
p130
I01
sS'still'
p131
I01
sS'its'
p132
I01
sS'before'
p133
I01
sS'thank'
p134
I01
sS'thence'
p135
I01
sS'selves'
p136
I01
sS'inward'
p137
I01
sS'actually'
p138
I01
sS'better'
p139
I01
sS'willing'
p140
I01
sS'thanx'
p141
I01
sS'ours'
p142
I01
sS'might'
p143
I01
sS'then'
p144
I01
sS'non'
p145
I01
sS'someone'
p146
I01
sS'somebody'
p147
I01
sS'thereby'
p148
I01
sS'they'
p149
I01
sS'not'
p150
I01
sS'awfully'
p151
I01
sS'nor'
p152
I01
sS'several'
p153
I01
sS'hereafter'
p154
I01
sS'always'
p155
I01
sS'reasonably'
p156
I01
sS'whither'
p157
I01
sS'l'
p158
I01
sS'each'
p159
I01
sS'entirely'
p160
I01
sS'mean'
p161
I01
sS'everyone'
p162
I01
sS'doing'
p163
I01
sS'eg'
p164
I01
sS'ex'
p165
I01
sS'our'
p166
I01
sS'beyond'
p167
I01
sS'out'
p168
I01
sS'them'
p169
I01
sS'furthermore'
p170
I01
sS'since'
p171
I01
sS'looking'
p172
I01
sS're'
p173
I01
sS'seriously'
p174
I01
sS'got'
p175
I01
sS'cause'
p176
I01
sS'thereupon'
p177
I01
sS'given'
p178
I01
sS'like'
p179
I01
sS'que'
p180
I01
sS'besides'
p181
I01
sS'ask'
p182
I01
sS'anyhow'
p183
I01
sS'g'
p184
I01
sS'could'
p185
I01
sS'tries'
p186
I01
sS'keep'
p187
I01
sS'w'
p188
I01
sS'ltd'
p189
I01
sS'hence'
p190
I01
sS'onto'
p191
I01
sS'think'
p192
I01
sS'first'
p193
I01
sS'already'
p194
I01
sS'seeming'
p195
I01
sS'thereafter'
p196
I01
sS'one'
p197
I01
sS'done'
p198
I01
sS'another'
p199
I01
sS'little'
p200
I01
sS'their'
p201
I01
sS'accordingly'
p202
I01
sS'least'
p203
I01
sS'name'
p204
I01
sS'anyone'
p205
I01
sS'indicate'
p206
I01
sS'too'
p207
I01
sS'gives'
p208
I01
sS'mostly'
p209
I01
sS'behind'
p210
I01
sS'nobody'
p211
I01
sS'took'
p212
I01
sS'immediate'
p213
I01
sS'regards'
p214
I01
sS'somewhat'
p215
I01
sS'off'
p216
I01
sS'believe'
p217
I01
sS'herself'
p218
I01
sS'than'
p219
I01
sS'specify'
p220
I01
sS'b'
p221
I01
sS'unfortunately'
p222
I01
sS'gotten'
p223
I01
sS'second'
p224
I01
sS'i'
p225
I01
sS'r'
p226
I01
sS'were'
p227
I01
sS'toward'
p228
I01
sS'are'
p229
I01
sS'and'
p230
I01
sS'beforehand'
p231
I01
sS'say'
p232
I01
sS'unlikely'
p233
I01
sS'have'
p234
I01
sS'need'
p235
I01
sS'seen'
p236
I01
sS'seem'
p237
I01
sS'saw'
p238
I01
sS'any'
p239
I01
sS'relatively'
p240
I01
sS'zero'
p241
I01
sS'thoroughly'
p242
I01
sS'latter'
p243
I01
sS'that'
p244
I01
sS'downwards'
p245
I01
sS'aside'
p246
I01
sS'thorough'
p247
I01
sS'also'
p248
I01
sS'take'
p249
I01
sS'which'
p250
I01
sS'exactly'
p251
I01
sS'unless'
p252
I01
sS'shall'
p253
I01
sS'who'
p254
I01
sS'most'
p255
I01
sS'eight'
p256
I01
sS'but'
p257
I01
sS'nothing'
p258
I01
sS'why'
p259
I01
sS'sub'
p260
I01
sS'especially'
p261
I01
sS'later'
p262
I01
sS'm'
p263
I01
sS'yours'
p264
I01
sS'definitely'
p265
I01
sS'normally'
p266
I01
sS'came'
p267
I01
sS'saying'
p268
I01
sS'particularly'
p269
I01
sS'anyway'
p270
I01
sS'fifth'
p271
I01
sS'outside'
p272
I01
sS'should'
p273
I01
sS'only'
p274
I01
sS'going'
p275
I01
sS'do'
p276
I01
sS'his'
p277
I01
sS'above'
p278
I01
sS'get'
p279
I01
sS'between'
p280
I01
sS'overall'
p281
I01
sS'truly'
p282
I01
sS'cannot'
p283
I01
sS'nearly'
p284
I01
sS'despite'
p285
I01
sS'during'
p286
I01
sS'no one'
p287
I01
sS'him'
p288
I01
sS'regarding'
p289
I01
sS'qv'
p290
I01
sS'h'
p291
I01
sS'twice'
p292
I01
sS'she'
p293
I01
sS'contain'
p294
I01
sS'x'
p295
I01
sS'where'
p296
I01
sS'thanks'
p297
I01
sS'ignored'
p298
I01
sS'namely'
p299
I01
sS'anyways'
p300
I01
sS'best'
p301
I01
sS'wonder'
p302
I01
sS'said'
p303
I01
sS'away'
p304
I01
sS'currently'
p305
I01
sS'please'
p306
I01
sS'enough'
p307
I01
sS'various'
p308
I01
sS'hopefully'
p309
I01
sS'probably'
p310
I01
sS'neither'
p311
I01
sS'across'
p312
I01
sS'we'
p313
I01
sS'useful'
p314
I01
sS'nbsp'
p315
I01
sS'however'
p316
I01
sS'come'
p317
I01
sS'both'
p318
I01
sS'c'
p319
I01
sS'last'
p320
I01
sS'many'
p321
I01
sS'whereafter'
p322
I01
sS'according'
p323
I01
sS'against'
p324
I01
sS'etc'
p325
I01
sS's'
p326
I01
sS'became'
p327
I01
sS'com'
p328
I01
sS'comes'
p329
I01
sS'otherwise'
p330
I01
sS'among'
p331
I01
sS'presumably'
p332
I01
sS'seems'
p333
I01
sS'whatever'
p334
I01
sS'hers'
p335
I01
sS'moreover'
p336
I01
sS'throughout'
p337
I01
sS'considering'
p338
I01
sS'sensible'
p339
I01
sS'described'
p340
I01
sS'three'
p341
I01
sS'been'
p342
I01
sS'whom'
p343
I01
sS'much'
p344
I01
sS'wherein'
p345
I01
sS'hardly'
p346
I01
sS'wants'
p347
I01
sS'corresponding'
p348
I01
sS'latterly'
p349
I01
sS'concerning'
p350
I01
sS'else'
p351
I01
sS'former'
p352
I01
sS'those'
p353
I01
sS'myself'
p354
I01
sS'novel'
p355
I01
sS'look'
p356
I01
sS'these'
p357
I01
sS'value'
p358
I01
sS'n'
p359
I01
sS'will'
p360
I01
sS'near'
p361
I01
sS'sometime'
p362
I01
sS'theres'
p363
I01
sS'seven'
p364
I01
sS'almost'
p365
I01
sS'wherever'
p366
I01
sS'is'
p367
I01
sS'thus'
p368
I01
sS'it'
p369
I01
sS'cant'
p370
I01
sS'itself'
p371
I01
sS'in'
p372
I01
sS'ie'
p373
I01
sS'y'
p374
I01
sS'if'
p375
I01
sS'containing'
p376
I01
sS'perhaps'
p377
I01
sS'insofar'
p378
I01
sS'same'
p379
I01
sS'clearly'
p380
I01
sS'beside'
p381
I01
sS'when'
p382
I01
sS'gets'
p383
I01
sS'used'
p384
I01
sS'http'
p385
I01
sS'see'
p386
I01
sS'somewhere'
p387
I01
sS'upon'
p388
I01
sS'uses'
p389
I01
sS'kept'
p390
I01
sS'whereby'
p391
I01
sS'nevertheless'
p392
I01
sS'whole'
p393
I01
sS'well'
p394
I01
sS'anybody'
p395
I01
sS'obviously'
p396
I01
sS'without'
p397
I01
sS'very'
p398
I01
sS'the'
p399
I01
sS'self'
p400
I01
sS'lest'
p401
I01
sS'just'
p402
I01
sS'less'
p403
I01
sS'being'
p404
I01
sS'able'
p405
I01
sS'liked'
p406
I01
sS'greetings'
p407
I01
sS'followed'
p408
I01
sS'yes'
p409
I01
sS'yet'
p410
I01
sS'unto'
p411
I01
sS'now'
p412
I01
sS'had'
p413
I01
sS'except'
p414
I01
sS'has'
p415
I01
sS'ought'
p416
I01
sS'around'
p417
I01
sS'possible'
p418
I01
sS'five'
p419
I01
sS'know'
p420
I01
sS'using'
p421
I01
sS'apart'
p422
I01
sS'necessary'
p423
I01
sS'd'
p424
I01
sS'follows'
p425
I01
sS'either'
p426
I01
sS'become'
p427
I01
sS'towards'
p428
I01
sS'therein'
p429
I01
sS'www'
p430
I01
sS'because'
p431
I01
sS'old'
p432
I01
sS'often'
p433
I01
sS'some'
p434
I01
sS'somehow'
p435
I01
sS'sure'
p436
I01
sS'specified'
p437
I01
sS'ourselves'
p438
I01
sS'happens'
p439
I01
sS'for'
p440
I01
sS'though'
p441
I01
sS'per'
p442
I01
sS'everything'
p443
I01
sS'does'
p444
I01
sS'provides'
p445
I01
sS'tends'
p446
I01
sS't'
p447
I01
sS'be'
p448
I01
sS'nowhere'
p449
I01
sS'although'
p450
I01
sS'by'
p451
I01
sS'on'
p452
I01
sS'about'
p453
I01
sS'ok'
p454
I01
sS'anything'
p455
I01
sS'oh'
p456
I01
sS'of'
p457
I01
sS'v'
p458
I01
sS'o'
p459
I01
sS'whence'
p460
I01
sS'plus'
p461
I01
sS'consequently'
p462
I01
sS'or'
p463
I01
sS'seeing'
p464
I01
sS'own'
p465
I01
sS'formerly'
p466
I01
sS'into'
p467
I01
sS'within'
p468
I01
sS'down'
p469
I01
sS'appropriate'
p470
I01
sS'right'
p471
I01
sS'your'
p472
I01
sS'her'
p473
I01
sS'there'
p474
I01
sS'inasmuch'
p475
I01
sS'inner'
p476
I01
sS'way'
p477
I01
sS'was'
p478
I01
sS'himself'
p479
I01
sS'elsewhere'
p480
I01
sS'becoming'
p481
I01
sS'amongst'
p482
I01
sS'hi'
p483
I01
sS'trying'
p484
I01
sS'with'
p485
I01
sS'he'
p486
I01
sS'whether'
p487
I01
sS'wish'
p488
I01
sS'j'
p489
I01
sS'up'
p490
I01
sS'us'
p491
I01
sS'until'
p492
I01
sS'placed'
p493
I01
sS'below'
p494
I01
sS'un'
p495
I01
sS'z'
p496
I01
sS'gone'
p497
I01
sS'sometimes'
p498
I01
sS'associated'
p499
I01
sS'certain'
p500
I01
sS'am'
p501
I01
sS'an'
p502
I01
sS'as'
p503
I01
sS'associates'
p504
I01
sS'at'
p505
I01
sS'et'
p506
I01
sS'inc'
p507
I01
sS'again'
p508
I01
sS'uucp'
p509
I01
sS'no'
p510
I01
sS'whereas'
p511
I01
sS'nd'
p512
I01
sS'lately'
p513
I01
sS'other'
p514
I01
sS'you'
p515
I01
sS'really'
p516
I01
sS'welcome'
p517
I01
sS'e'
p518
I01
sS'together'
p519
I01
sS'having'
p520
I01
sS'u'
p521
I01
sS'serious'
p522
I01
sS'hello'
p523
I01
sS'once'
p524
I01
s.