(ivector
vector
p0
(dp1
S'topTimes'
p2
(lp3
S'12-0'
p4
aS'13-0'
p5
aS'14-30'
p6
asS'data'
p7
(dp8
S'available'
p9
I1
sS'Message-----'
p10
I1
sS'-----Original'
p11
I1
sS'Cc:'
p12
I1
sS'I'
p13
I1
sS'week.'
p14
I1
sS'Wilhite,'
p15
I1
sS'Marie,'
p16
I1
sS'today?'
p17
I1
sS'Are'
p18
I1
sS'lunch'
p19
I2
sS'Jane'
p20
I2
sS'not,'
p21
I1
sS'Subject:'
p22
I1
sS'If'
p23
I1
ssS'smoothing'
p24
F0.5
sb.