(ivector
vector
p0
(dp1
S'topTimes'
p2
(lp3
S'12-0'
p4
aS'11-30'
p5
aS'12-30'
p6
asS'data'
p7
(dp8
S'Sanders-R'
p9
I1
sS'Mon,'
p10
I1
sS'Jan'
p11
I1
sS'<lgibson@ogwb.com>'
p12
I1
sS'possible.'
p13
I1
sS'01:50:00'
p14
I1
sS'Grill'
p15
I1
sS'today?'
p16
I1
sS'Sanders/HOU/ECT'
p17
I1
sS'Baughman'
p18
I2
sS'Laura'
p19
I1
sS'lunch'
p20
I1
sS'While'
p21
I1
sS'(PST)'
p22
I1
sS'richard.sanders@enron.com'
p23
I1
sS'Aug.'
p24
I1
sS'X-bcc:'
p25
I1
sS'09:04:25'
p26
I1
sS'quick'
p27
I1
sS'From:'
p28
I1
sS'respond'
p29
I1
sS'Date:'
p30
I1
sS'Folders\\All'
p31
I1
sS'review'
p32
I1
sS'01/27/2000'
p33
I1
sS'waiting'
p34
I1
sS'charset=us-ascii'
p35
I1
sS'Let'
p36
I1
sS'----------------------'
p37
I1
sS'01/31/2000'
p38
I1
sS'09:50'
p39
I1
sS'X-Folder:'
p40
I1
sS'ahead'
p41
I1
sS'Richard,'
p42
I1
sS'Ed'
p43
I3
sS'31'
p44
I1
sS'\\Richard_Sanders_Dec2000\\Notes'
p45
I1
sS'---------------------------'
p46
I1
sS'Calpine'
p47
I1
sS'bite'
p48
I1
sS'Forwarded'
p49
I1
sS'Please'
p50
I1
sS'know.'
p51
I1
sS'Sanders'
p52
I1
sS'X-To:'
p53
I1
sS'service'
p54
I1
sS'lgibson@ogwb.com'
p55
I1
sS'Gibson"'
p56
I1
sS'Phone'
p57
I2
sS"Reliant's"
p58
I1
sS'"Laura'
p59
I1
sS'Post'
p60
I1
sS'(under'
p61
I1
sS'To:'
p62
I1
sS'Message-ID:'
p63
I1
sS'B'
p64
I3
sS'text/plain;'
p65
I1
sS'phone'
p66
I1
sS'Subject:'
p67
I2
sS'pull'
p68
I1
sS'tapes'
p69
I3
sS'Content-Type:'
p70
I1
sS'meet'
p71
I1
sS'X-cc:'
p72
I1
sS'-0800'
p73
I1
sS'1.0'
p74
I1
sS'Richard'
p75
I3
sS'X-FileName:'
p76
I1
sS'Oak'
p77
I1
sS'July,'
p78
I1
sS'building)'
p79
I1
sS'Do'
p80
I1
sS'documents'
p81
I1
sS'cc:'
p82
I1
sS'X-From:'
p83
I1
sS'Sanders/HOU/ECT@ECT'
p84
I1
sS'<1344108.1075860516005.JavaMail.evans@thyme>'
p85
I1
sS'Baughman?'
p86
I1
sS'X-Origin:'
p87
I1
sS'7bit'
p88
I1
sS'plans'
p89
I1
sS'eat?'
p90
I1
sS'I'
p91
I1
sS'AM'
p92
I2
sS'chance'
p93
I1
sS'Mime-Version:'
p94
I1
sS'rsander.nsf'
p95
I1
sS'2000'
p96
I1
sS'Content-Transfer-Encoding:'
p97
I1
sS'not,'
p98
I1
sS'If'
p99
I1
ssS'smoothing'
p100
F0.5
sb.