(ivector
vector
p0
(dp1
S'topTimes'
p2
(lp3
S'17-30'
p4
aS'17-0'
p5
aS'18-0'
p6
asS'data'
p7
(dp8
S'-0800'
p9
I1
sS'executed'
p10
I1
sS'1.0'
p11
I1
sS'Morgan'
p12
I1
sS'process'
p13
I1
sS'Folders\\All'
p14
I1
sS'Mon,'
p15
I1
sS'Date:'
p16
I1
sS'JP'
p17
I1
sS'Counsel'
p18
I1
sS'Mime-Version:'
p19
I1
sS'Hopefully'
p20
I1
sS'James,'
p21
I1
sS'Robertson'
p22
I1
sS'others.'
p23
I1
sS'SHACKLETON-S'
p24
I1
sS'tomorrow'
p25
I1
sS'Cheryl'
p26
I2
sS'Mar'
p27
I1
sS'X-To:'
p28
I1
sS'then,'
p29
I1
sS'X-From:'
p30
I1
sS'late'
p31
I1
sS'2001'
p32
I1
sS'charset=us-ascii'
p33
I1
sS'5p.m.)'
p34
I1
sS'sshackle.nsf'
p35
I1
sS'From:'
p36
I1
sS'To:'
p37
I1
sS'X-Origin:'
p38
I1
sS'Sara'
p39
I1
sS'7bit'
p40
I1
sS'executed.'
p41
I1
sS'EB3880D'
p42
I1
sS'agreements?'
p43
I1
sS'<5181330.1075844709574.JavaMail.evans@thyme>'
p44
I1
sS'text/plain;'
p45
I1
sS'update'
p46
I1
sS'Shackleton'
p47
I1
sS'345-4693'
p48
I1
sS'documents'
p49
I1
sS'moving'
p50
I1
sS'Nelson'
p51
I2
sS'Also,'
p52
I1
sS'X-Folder:'
p53
I1
sS'brokerage'
p54
I1
sS'Senior'
p55
I1
sS'X-FileName:'
p56
I1
sS'Raymond'
p57
I1
sS'cheryl.nelson@enron.com'
p58
I1
sS'07:24:00'
p59
I1
sS'12'
p60
I1
sS'Stephens'
p61
I1
sS'Content-Type:'
p62
I1
sS'X-cc:'
p63
I1
sS'Message-ID:'
p64
I1
sS'sara.shackleton@enron.com'
p65
I1
sS'maybe,'
p66
I1
sS'X-bcc:'
p67
I1
sS'(PST)'
p68
I1
sS'Content-Transfer-Encoding:'
p69
I1
sS'afternoon'
p70
I1
sS'(713)'
p71
I1
sS'meet'
p72
I1
sS'Subject:'
p73
I1
sS'(say'
p74
I1
sS'\\Sara_Shackleton_Dec2000_June2001_2\\Notes'
p75
I1
ssS'smoothing'
p76
F0.5
sb.