(ivector
vector
p0
(dp1
S'topTimes'
p2
(lp3
S'17-30'
p4
aS'18-0'
p5
aS'18-30'
p6
asS'data'
p7
(dp8
S'Sarah'
p9
I3
sS'To:'
p10
I3
sS'Yea...can'
p11
I1
sS'1.0'
p12
I1
sS'Arnold/HOU/ECT@ECT'
p13
I1
sS'Date:'
p14
I1
sS'(PDT)'
p15
I1
sS'Message-ID:'
p16
I1
sS'john.arnold@enron.com'
p17
I1
sS'Progress'
p18
I1
sS'John'
p19
I3
sS'\\John_Arnold_Dec2000\\Notes'
p20
I1
sS'03:29'
p21
I1
sS'08:50:00'
p22
I1
sS'Jarnold.nsf'
p23
I1
sS'Wed,'
p24
I1
sS'X-To:'
p25
I1
sS'cc:'
p26
I2
sS'X-From:'
p27
I1
sS'today?'
p28
I1
sS'Arnold@ECT'
p29
I1
sS'charset=us-ascii'
p30
I1
sS'6'
p31
I1
sS'mail'
p32
I1
sS'<6778328.1075857598853.JavaMail.evans@thyme>'
p33
I1
sS'good.'
p34
I1
sS'From:'
p35
I1
sS'Re:'
p36
I2
sS'X-Origin:'
p37
I1
sS'X-FileName:'
p38
I1
sS'7bit'
p39
I1
sS'sarah.wesner@enron.com'
p40
I1
sS'Do'
p41
I1
sS'checking'
p42
I1
sS'text/plain;'
p43
I1
sS'AM'
p44
I1
sS'Arnold'
p45
I1
sS'Wesner/Corp/Enron@Enron'
p46
I1
sS'Wesner'
p47
I1
sS'5:30?'
p48
I1
sS'11:51'
p49
I1
sS'X-Folder:'
p50
I1
sS'09/06/2000'
p51
I2
sS'Subject:'
p52
I3
sS'Content-Type:'
p53
I1
sS'Arnold-J'
p54
I1
sS"Folders\\'sent"
p55
I1
sS'Sep'
p56
I1
sS'X-cc:'
p57
I1
sS'-0700'
p58
I1
sS'project....'
p59
I1
sS'Mime-Version:'
p60
I1
sS'Wesner@ENRON'
p61
I1
sS'X-bcc:'
p62
I1
sS'2000'
p63
I1
sS'Content-Transfer-Encoding:'
p64
I1
sS'status'
p65
I1
sS'meet'
p66
I1
sS'PM'
p67
I1
sS'margin'
p68
I1
ssS'smoothing'
p69
F0.5
sb.