(ivector
vector
p0
(dp1
S'topTimes'
p2
(lp3
S'15-0'
p4
aS'15-30'
p5
aS'16-0'
p6
asS'data'
p7
(dp8
S'Pipeline'
p9
I1
sS'set'
p10
I1
sS'&'
p11
I1
sS'Lisa'
p12
I1
sS'When'
p13
I1
sS'Sempra'
p14
I1
sS'short'
p15
I1
sS'California'
p16
I1
sS'Les'
p17
I1
sS'Jeff:'
p18
I1
sS"I'd"
p19
I1
sS'call'
p20
I1
sS'pipeline.'
p21
I1
sS'Subject:'
p22
I1
sS'discuss'
p23
I1
sS'today'
p24
I1
sS'available?'
p25
I1
ssS'smoothing'
p26
F0.5
sb.