(ivector
vector
p0
(dp1
S'topTimes'
p2
(lp3
S'16-0'
p4
aS'16-30'
p5
aS'17-0'
p6
asS'data'
p7
(dp8
S'RE:'
p9
I1
sS'(TECO)'
p10
I1
sS'Jim'
p11
I1
sS'Adams'
p12
I1
sS'Wed.'
p13
I1
sS'&'
p14
I1
sS'w/'
p15
I1
sS'Bob'
p16
I1
sS'Tuesday'
p17
I1
sS'after'
p18
I1
sS'(Panda)'
p19
I1
sS'Anytime'
p20
I1
sS'Adrian'
p21
I1
sS'Meet'
p22
I1
sS'Subject:'
p23
I1
sS'anytime'
p24
I1
sS'Updated:'
p25
I1
sS'morning.'
p26
I1
sS'4'
p27
I1
ssS'smoothing'
p28
F0.5
sb.