(ivector
vector
p0
(dp1
S'topTimes'
p2
(lp3
(cdatetime
datetime
p4
(S'\x07\xde\x04\x0e\x0c\x00\x00\x00\x00\x00'
p5
ccopy_reg
_reconstructor
p6
(cdateutil.tz
tzoffset
p7
cdatetime
tzinfo
p8
g8
(tRp9
tp10
Rp11
(dp12
S'_offset'
p13
cdatetime
timedelta
p14
(I-1
I68400
I0
tp15
Rp16
sS'_name'
p17
Nsbtp18
Rp19
g4
(S'\x07\xde\x04\x0e\r\x00\x00\x00\x00\x00'
p20
g11
tp21
Rp22
Ntp23
a(g4
(S'\x07\xde\x04\x0e\x0c\x1e\x00\x00\x00\x00'
p24
g11
tp25
Rp26
g4
(S'\x07\xde\x04\x0e\r\x1e\x00\x00\x00\x00'
p27
g11
tp28
Rp29
Ntp30
a(g4
(S'\x07\xde\x04\x0e\r\x00\x00\x00\x00\x00'
p31
g11
tp32
Rp33
g4
(S'\x07\xde\x04\x0e\x0e\x00\x00\x00\x00\x00'
p34
g11
tp35
Rp36
Ntp37
asS'data'
p38
(dp39
S'Sanders-R'
p40
I1
sS'Mon,'
p41
I1
sS'Jan'
p42
I1
sS'<lgibson@ogwb.com>'
p43
I1
sS'possible.'
p44
I1
sS'01:50:00'
p45
I1
sS'Grill'
p46
I1
sS'today?'
p47
I1
sS'Sanders/HOU/ECT'
p48
I1
sS'Baughman'
p49
I2
sS'Laura'
p50
I1
sS'lunch'
p51
I1
sS'While'
p52
I1
sS'(PST)'
p53
I1
sS'richard.sanders@enron.com'
p54
I1
sS'Aug.'
p55
I1
sS'X-bcc:'
p56
I1
sS'09:04:25'
p57
I1
sS'quick'
p58
I1
sS'From:'
p59
I1
sS'respond'
p60
I1
sS'Date:'
p61
I1
sS'Folders\\All'
p62
I1
sS'review'
p63
I1
sS'01/27/2000'
p64
I1
sS'waiting'
p65
I1
sS'charset=us-ascii'
p66
I1
sS'Let'
p67
I1
sS'----------------------'
p68
I1
sS'01/31/2000'
p69
I1
sS'09:50'
p70
I1
sS'X-Folder:'
p71
I1
sS'ahead'
p72
I1
sS'Richard,'
p73
I1
sS'Ed'
p74
I3
sS'31'
p75
I1
sS'\\Richard_Sanders_Dec2000\\Notes'
p76
I1
sS'---------------------------'
p77
I1
sS'Calpine'
p78
I1
sS'bite'
p79
I1
sS'Forwarded'
p80
I1
sS'Please'
p81
I1
sS'know.'
p82
I1
sS'Sanders'
p83
I1
sS'X-To:'
p84
I1
sS'service'
p85
I1
sS'lgibson@ogwb.com'
p86
I1
sS'Gibson"'
p87
I1
sS'Phone'
p88
I2
sS"Reliant's"
p89
I1
sS'"Laura'
p90
I1
sS'Post'
p91
I1
sS'(under'
p92
I1
sS'To:'
p93
I1
sS'Message-ID:'
p94
I1
sS'B'
p95
I3
sS'text/plain;'
p96
I1
sS'phone'
p97
I1
sS'Subject:'
p98
I2
sS'pull'
p99
I1
sS'tapes'
p100
I3
sS'Content-Type:'
p101
I1
sS'meet'
p102
I1
sS'X-cc:'
p103
I1
sS'-0800'
p104
I1
sS'1.0'
p105
I1
sS'Richard'
p106
I3
sS'X-FileName:'
p107
I1
sS'Oak'
p108
I1
sS'July,'
p109
I1
sS'building)'
p110
I1
sS'Do'
p111
I1
sS'documents'
p112
I1
sS'cc:'
p113
I1
sS'X-From:'
p114
I1
sS'Sanders/HOU/ECT@ECT'
p115
I1
sS'<1344108.1075860516005.JavaMail.evans@thyme>'
p116
I1
sS'Baughman?'
p117
I1
sS'X-Origin:'
p118
I1
sS'7bit'
p119
I1
sS'plans'
p120
I1
sS'eat?'
p121
I1
sS'I'
p122
I1
sS'AM'
p123
I2
sS'chance'
p124
I1
sS'Mime-Version:'
p125
I1
sS'rsander.nsf'
p126
I1
sS'2000'
p127
I1
sS'Content-Transfer-Encoding:'
p128
I1
sS'not,'
p129
I1
sS'If'
p130
I1
ssS'smoothing'
p131
F0.5
sb.