(ivector
vector
p0
(dp1
S'topTimes'
p2
(lp3
S'9-0'
p4
aS'9-30'
p5
aS'10-0'
p6
asS'data'
p7
(dp8
S'available'
p9
I1
sS'Yes,'
p10
I1
sS'1.0'
p11
I1
sS'cc:'
p12
I2
sS'\\Sara_Shackleton_Dec2000_June2001_1\\Notes'
p13
I1
sS'Mon,'
p14
I1
sS'Date:'
p15
I1
sS'Please'
p16
I1
sS'Message-ID:'
p17
I1
sS'To:'
p18
I3
sS'X-Folder:'
p19
I1
sS'financial'
p20
I1
sS'trading'
p21
I1
sS'kaye.ellis@enron.com'
p22
I1
sS'text/plain;'
p23
I1
sS'Ellis'
p24
I2
sS'please.'
p25
I1
sS'SHACKLETON-S'
p26
I1
sS'03:50:00'
p27
I1
sS'Do'
p28
I1
sS'X-To:'
p29
I1
sS'-0700'
p30
I1
sS'09:04'
p31
I1
sS'Jun'
p32
I1
sS'vacation'
p33
I1
sS'X-From:'
p34
I1
sS'10:34'
p35
I1
sS'Ngo,'
p36
I1
sS'charset=us-ascii'
p37
I1
sS'5'
p38
I1
sS'Kim'
p39
I2
sS'Theriot,'
p40
I1
sS'9'
p41
I1
sS'Tracy'
p42
I2
sS'meeting'
p43
I3
sS'Kaye'
p44
I4
sS'From:'
p45
I1
sS'Re:'
p46
I2
sS'X-Origin:'
p47
I1
sS'Sara'
p48
I4
sS'7bit'
p49
I1
sS'power'
p50
I1
sS'schedule'
p51
I3
sS'Sacks'
p52
I1
sS'(PDT)'
p53
I1
sS'-'
p54
I2
sS'AM'
p55
I2
sS'Shackleton'
p56
I2
sS'sshackle.nsf'
p57
I1
sS'included.'
p58
I1
sS'tomorrow.'
p59
I1
sS'Subject:'
p60
I3
sS'X-FileName:'
p61
I1
sS'discuss'
p62
I1
sS'Tracy,'
p63
I1
sS'Ellis/HOU/ECT@ECT'
p64
I1
sS'Shackleton/HOU/ECT@ECT'
p65
I1
sS'Kim?'
p66
I1
sS'week.'
p67
I1
sS'Ed'
p68
I2
sS'X-cc:'
p69
I1
sS'Content-Type:'
p70
I1
sS'Murphy,'
p71
I1
sS'sara.shackleton@enron.com'
p72
I1
sS'Mime-Version:'
p73
I1
sS'counterparties.'
p74
I1
sS'credit'
p75
I1
sS'2000'
p76
I1
sS'Folders\\Sent'
p77
I1
sS'X-bcc:'
p78
I1
sS'meet'
p79
I1
sS'06/05/2000'
p80
I2
sS'Content-Transfer-Encoding:'
p81
I1
sS'<29113404.1075844554281.JavaMail.evans@thyme>'
p82
I1
sS'Melissa'
p83
I2
ssS'smoothing'
p84
F0.5
sb.