(ivector
vector
p0
(dp1
S'topTimes'
p2
(lp3
S'11-0'
p4
aS'11-30'
p5
aS'13-30'
p6
asS'data'
p7
(dp8
S'Cc:'
p9
I1
sS'storage'
p10
I1
sS'molly.johnson@enron.com,'
p11
I2
sS'11:00'
p12
I1
sS'Bcc:'
p13
I1
sS'issues'
p14
I1
sS'conference'
p15
I1
sS'there.'
p16
I1
sS'clarification'
p17
I1
sS'&'
p18
I1
sS'Molly'
p19
I1
sS'CES'
p20
I1
sS'Thursday.'
p21
I1
sS'call'
p22
I1
sS'Re:'
p23
I1
sS'full'
p24
I1
sS'Kim,'
p25
I1
sS'Also,'
p26
I1
sS"I'm"
p27
I2
sS'kimberly.brown@enron.com'
p28
I2
sS'room'
p29
I1
sS'hour'
p30
I1
sS'week.'
p31
I1
sS'starting'
p32
I2
sS'Friday.'
p33
I1
sS'time'
p34
I1
sS'Subject:'
p35
I1
sS'reserve'
p36
I1
ssS'smoothing'
p37
F0.5
sb.