(ivector
vector
p0
(dp1
S'topTimes'
p2
(lp3
S'12-0'
p4
aS'12-30'
p5
aS'13-0'
p6
asS'data'
p7
(dp8
S'respond'
p9
I1
sS'tapes'
p10
I3
sS'Forwarded'
p11
I1
sS'Richard'
p12
I1
sS'09:50'
p13
I1
sS'Oak'
p14
I1
sS'know.'
p15
I1
sS'July,'
p16
I1
sS'building)'
p17
I1
sS'Do'
p18
I1
sS'today?'
p19
I1
sS'service'
p20
I1
sS'possible.'
p21
I1
sS'lgibson@ogwb.com'
p22
I1
sS'Gibson"'
p23
I1
sS'01/27/2000'
p24
I1
sS'---------------------------'
p25
I1
sS'<lgibson@ogwb.com>'
p26
I1
sS'review'
p27
I1
sS'Phone'
p28
I2
sS'waiting'
p29
I1
sS'Let'
p30
I1
sS"Reliant's"
p31
I1
sS'Sanders/HOU/ECT'
p32
I1
sS'----------------------'
p33
I1
sS'"Laura'
p34
I1
sS'Post'
p35
I1
sS'(under'
p36
I1
sS'Baughman?'
p37
I1
sS'Grill'
p38
I1
sS'B'
p39
I1
sS'plans'
p40
I1
sS'eat?'
p41
I1
sS'I'
p42
I1
sS'Please'
p43
I1
sS'Baughman'
p44
I2
sS'AM'
p45
I2
sS'phone'
p46
I1
sS'chance'
p47
I1
sS'01/31/2000'
p48
I1
sS'not,'
p49
I1
sS'Subject:'
p50
I2
sS'pull'
p51
I1
sS'Aug.'
p52
I1
sS'ahead'
p53
I1
sS'lunch'
p54
I1
sS'Ed'
p55
I3
sS'Richard,'
p56
I1
sS'While'
p57
I1
sS'Laura'
p58
I1
sS'09:04:25'
p59
I1
sS'quick'
p60
I1
sS'meet'
p61
I1
sS'Calpine'
p62
I1
sS'bite'
p63
I1
sS'If'
p64
I1
ssS'smoothing'
p65
F0.5
sb.