(ivector
vector
p0
(dp1
S'topTimes'
p2
(lp3
S'11-0'
p4
aS'21-0'
p5
aS'21-30'
p6
asS'data'
p7
(dp8
S'To:'
p9
I1
sS'Wed'
p10
I1
sS'w/'
p11
I1
sS'11,'
p12
I1
sS'Jim'
p13
I1
sS'Hyatt,'
p14
I1
sS'(TECO)'
p15
I1
sS'Updated:'
p16
I1
sS'-----Original'
p17
I1
sS'&'
p18
I1
sS'(Panda)'
p19
I1
sS'A.'
p20
I1
sS'From:'
p21
I1
sS'available'
p22
I1
sS"I'll"
p23
I1
sS'February'
p24
I1
sS'Adams'
p25
I1
sS'7:49'
p26
I1
sS'Sent:'
p27
I1
sS'Monday,'
p28
I1
sS'AM'
p29
I1
sS'Tues'
p30
I1
sS'RE:'
p31
I1
sS'Adrian'
p32
I1
sS'Meet'
p33
I1
sS'Bob'
p34
I1
sS'check.'
p35
I1
sS'Message-----'
p36
I1
sS'2002'
p37
I1
sS'Howard,'
p38
I1
sS'time'
p39
I1
sS'pm'
p40
I1
sS'Subject:'
p41
I1
sS'Kevin'
p42
I2
ssS'smoothing'
p43
F0.5
sb.