(ivector
vector
p0
(dp1
S'topTimes'
p2
(lp3
S'8-0'
p4
aS'8-30'
p5
aS'9-0'
p6
asS'data'
p7
(dp8
S'Re:'
p9
I1
sS'What'
p10
I1
sS'8:00'
p11
I1
sS'Vince'
p12
I1
sS'Martin,'
p13
I1
sS'a.m.'
p14
I1
sS'(Wed)'
p15
I1
sS'Subject:'
p16
I1
sS'meeting'
p17
I1
sS'tomorrow'
p18
I1
sS'morning.'
p19
I1
ssS'smoothing'
p20
F0.5
sb.