(ivector
vector
p0
(dp1
S'topTimes'
p2
(lp3
S'17-30'
p4
aS'18-0'
p5
aS'18-30'
p6
asS'data'
p7
(dp8
S'Sarah'
p9
I1
sS'Re:'
p10
I2
sS'Progress'
p11
I1
sS'John'
p12
I1
sS'03:29'
p13
I1
sS'Do'
p14
I1
sS'Yea...can'
p15
I1
sS'today?'
p16
I1
sS'Arnold@ECT'
p17
I1
sS'good.'
p18
I1
sS'PM'
p19
I1
sS'status'
p20
I1
sS'checking'
p21
I1
sS'AM'
p22
I1
sS'5:30?'
p23
I1
sS'11:51'
p24
I1
sS'09/06/2000'
p25
I2
sS'Subject:'
p26
I3
sS'project....'
p27
I1
sS'Wesner@ENRON'
p28
I1
sS'meet'
p29
I1
sS'margin'
p30
I1
ssS'smoothing'
p31
F0.5
sb.