(ivector
vector
p0
(dp1
S'topTimes'
p2
(lp3
S'8-30'
p4
aS'8-0'
p5
aS'10-30'
p6
asS'data'
p7
(dp8
S'-0800'
p9
I1
sS'Whitt,'
p10
I2
sS'30'
p11
I1
sS'1.0'
p12
I1
sS'8:30?'
p13
I1
sS'-'
p14
I1
sS'Robert'
p15
I2
sS'Date:'
p16
I1
sS'Message-ID:'
p17
I1
sS'Thursday'
p18
I1
sS'Mark'
p19
I3
sS'How'
p20
I1
sS'Tue,'
p21
I1
sS'X-From:'
p22
I1
sS'text/plain;'
p23
I1
sS'sounds'
p24
I1
sS'Oct'
p25
I1
sS'Whitt-M'
p26
I1
sS'Mark\\Sent'
p27
I1
sS'Tuesday,'
p28
I1
sS'X-To:'
p29
I1
sS'That'
p30
I1
sS'Items'
p31
I1
sS'</O=ENRON/OU=NA/CN=RECIPIENTS/CN=Rfrank>'
p32
I1
sS'Frank,'
p33
I2
sS'lobby'
p34
I1
sS'2001'
p35
I2
sS'robert.frank@enron.com'
p36
I1
sS'4:30'
p37
I1
sS'7:30am?'
p38
I1
sS'15:39:58'
p39
I1
sS'meeting'
p40
I3
sS'good.'
p41
I1
sS'From:'
p42
I2
sS'To:'
p43
I2
sS'X-Origin:'
p44
I1
sS'October'
p45
I1
sS'7bit'
p46
I1
sS'mark.whitt@enron.com'
p47
I1
sS'(Non-Privileged).pst'
p48
I1
sS'(Non-Privileged)\\Whitt,'
p49
I1
sS'X-FileName:'
p50
I1
sS'downtown'
p51
I1
sS'(PST)'
p52
I1
sS'30,'
p53
I1
sS'MWHITT'
p54
I1
sS'X-Folder:'
p55
I1
sS'Subject:'
p56
I2
sS'hearing'
p57
I1
sS'</O=ENRON/OU=NA/CN=RECIPIENTS/CN=MWHITT>'
p58
I1
sS'-----Original'
p59
I1
sS'RE:'
p60
I1
sS'charset=us-ascii'
p61
I1
sS'Hyatt'
p62
I1
sS'Message-----'
p63
I1
sS'X-cc:'
p64
I1
sS'Content-Type:'
p65
I1
sS'\\MWHITT'
p66
I1
sS'Mime-Version:'
p67
I1
sS'PUC'
p68
I1
sS'<31618792.1075861992225.JavaMail.evans@thyme>'
p69
I1
sS'Sent:'
p70
I1
sS'Content-Transfer-Encoding:'
p71
I1
sS'X-bcc:'
p72
I1
sS'meet'
p73
I1
sS'PM'
p74
I1
ssS'smoothing'
p75
F0.5
sb.