(ivector
vector
p0
(dp1
S'topTimes'
p2
(lp3
S'15-0'
p4
aS'15-30'
p5
aS'16-0'
p6
asS'data'
p7
(dp8
S'Re:'
p9
I1
sS'Jeff,'
p10
I1
sS'Core/Non-Core'
p11
I1
sS'fee'
p12
I1
sS'Marty'
p13
I1
sS'today?'
p14
I1
sS'Could'
p15
I1
sS'-'
p16
I1
sS'Sunde'
p17
I1
sS'scenarios.'
p18
I1
sS'Keeney'
p19
I1
sS'Thanks,'
p20
I1
sS'ahold'
p21
I1
sS'California'
p22
I1
sS'talk'
p23
I1
sS'exit'
p24
I1
sS'Subject:'
p25
I1
sS'713-345-3724'
p26
I1
sS'asked'
p27
I1
sS'discuss'
p28
I1
sS'Kevin'
p29
I1
ssS'smoothing'
p30
F0.5
sb.