(ivector
vector
p0
(dp1
S'topTimes'
p2
(lp3
(cdatetime
datetime
p4
(S'\x07\xde\x04\x0e\x11\x1e\x00\x00\x00\x00'
p5
ccopy_reg
_reconstructor
p6
(cdateutil.tz
tzoffset
p7
cdatetime
tzinfo
p8
g8
(tRp9
tp10
Rp11
(dp12
S'_offset'
p13
cdatetime
timedelta
p14
(I-1
I68400
I0
tp15
Rp16
sS'_name'
p17
Nsbtp18
Rp19
g4
(S'\x07\xde\x04\x0e\x12\x1e\x00\x00\x00\x00'
p20
g11
tp21
Rp22
Ntp23
a(g4
(S'\x07\xde\x04\x0e\x11\x00\x00\x00\x00\x00'
p24
g6
(g7
g8
g8
(tRp25
tp26
Rp27
(dp28
g13
g14
(I-1
I68400
I0
tp29
Rp30
sg17
Nsbtp31
Rp32
g4
(S'\x07\xde\x04\x0e\x12\x00\x00\x00\x00\x00'
p33
g27
tp34
Rp35
Ntp36
a(g4
(S'\x07\xde\x04\x0e\x13\x00\x00\x00\x00\x00'
p37
g27
tp38
Rp39
g4
(S'\x07\xde\x04\x0e\x14\x00\x00\x00\x00\x00'
p40
g27
tp41
Rp42
Ntp43
asS'data'
p44
(dp45
S'Sarah'
p46
I3
sS'To:'
p47
I3
sS'Yea...can'
p48
I1
sS'1.0'
p49
I1
sS'Arnold/HOU/ECT@ECT'
p50
I1
sS'Date:'
p51
I1
sS'(PDT)'
p52
I1
sS'Message-ID:'
p53
I1
sS'john.arnold@enron.com'
p54
I1
sS'Progress'
p55
I1
sS'John'
p56
I3
sS'\\John_Arnold_Dec2000\\Notes'
p57
I1
sS'03:29'
p58
I1
sS'08:50:00'
p59
I1
sS'Jarnold.nsf'
p60
I1
sS'Wed,'
p61
I1
sS'X-To:'
p62
I1
sS'cc:'
p63
I2
sS'X-From:'
p64
I1
sS'today?'
p65
I1
sS'Arnold@ECT'
p66
I1
sS'charset=us-ascii'
p67
I1
sS'6'
p68
I1
sS'mail'
p69
I1
sS'<6778328.1075857598853.JavaMail.evans@thyme>'
p70
I1
sS'good.'
p71
I1
sS'From:'
p72
I1
sS'Re:'
p73
I2
sS'X-Origin:'
p74
I1
sS'X-FileName:'
p75
I1
sS'7bit'
p76
I1
sS'sarah.wesner@enron.com'
p77
I1
sS'Do'
p78
I1
sS'checking'
p79
I1
sS'text/plain;'
p80
I1
sS'AM'
p81
I1
sS'Arnold'
p82
I1
sS'Wesner/Corp/Enron@Enron'
p83
I1
sS'Wesner'
p84
I1
sS'5:30?'
p85
I1
sS'11:51'
p86
I1
sS'X-Folder:'
p87
I1
sS'09/06/2000'
p88
I2
sS'Subject:'
p89
I3
sS'Content-Type:'
p90
I1
sS'Arnold-J'
p91
I1
sS"Folders\\'sent"
p92
I1
sS'Sep'
p93
I1
sS'X-cc:'
p94
I1
sS'-0700'
p95
I1
sS'project....'
p96
I1
sS'Mime-Version:'
p97
I1
sS'Wesner@ENRON'
p98
I1
sS'X-bcc:'
p99
I1
sS'2000'
p100
I1
sS'Content-Transfer-Encoding:'
p101
I1
sS'status'
p102
I1
sS'meet'
p103
I1
sS'PM'
p104
I1
sS'margin'
p105
I1
ssS'smoothing'
p106
F0.5
sb.