(ivector
vector
p0
(dp1
S'topTimes'
p2
(lp3
S'13-0'
p4
aS'14-0'
p5
aS'14-30'
p6
asS'data'
p7
(dp8
S'Conference'
p9
I1
sS'Prehearing'
p10
I2
sS'Jan'
p11
I1
sS'Mr.'
p12
I1
sS'1:00'
p13
I1
sS'conf.'
p14
I1
sS'Williams'
p15
I1
sS'-----Original'
p16
I1
sS'2:00'
p17
I1
sS'Dasovich,'
p18
I1
sS'-'
p19
I1
sS'p.m.'
p20
I1
sS'Thanks.'
p21
I1
sS'call'
p22
I1
sS'CST?'
p23
I1
sS'7'
p24
I2
sS'November'
p25
I2
sS'Conference.'
p26
I1
sS'available'
p27
I1
sS'Message-----'
p28
I1
sS'tomorrow'
p29
I1
sS'schedule'
p30
I1
sS'Bob'
p31
I1
sS'Are'
p32
I1
sS'Subject:'
p33
I1
sS'asked'
p34
I1
ssS'smoothing'
p35
F0.5
sb.