(ivector
vector
p0
(dp1
S'topTimes'
p2
(lp3
S'8-0'
p4
aS'8-30'
p5
aS'9-0'
p6
asS'data'
p7
(dp8
S'unwind'
p9
I1
sS'Dan,'
p10
I1
sS'pre-pay.'
p11
I1
sS'Take'
p12
I1
sS'surety'
p13
I1
sS'tomorrow'
p14
I2
sS'morning.'
p15
I1
sS'We'
p16
I1
sS'forwarded'
p17
I1
sS'concerned'
p18
I1
sS'default.'
p19
I1
sS'available?'
p20
I1
sS'note'
p21
I1
sS'Joe'
p22
I1
sS'DeMoes.'
p23
I1
sS'provider'
p24
I1
sS'**********************************************'
p25
I1
sS'Deffner'
p26
I1
sS'This'
p27
I1
sS'paragraph.'
p28
I1
sS'Phil'
p29
I1
sS'prepared'
p30
I1
sS'plan'
p31
I1
sS'letter'
p32
I1
sS"I'm"
p33
I1
sS'******************************************************************************'
p34
I3
sS'Breese'
p35
I1
sS'particular,'
p36
I1
sS'Are'
p37
I1
sS'In'
p38
I1
sS'meet'
p39
I1
sS'PEAK'
p40
I1
ssS'smoothing'
p41
F0.5
sb.